; Function Attrs: mustprogress uwtable
define noundef double @_ZNK8QuantLib21AnalyticBarrierEngine2muEv(ptr nocapture noundef nonnull readonly align 8 dereferenceable(440) %this) local_unnamed_addr #8 align 2 {
entry:
  %call = tail call noundef double @_ZNK8QuantLib21AnalyticBarrierEngine10volatilityEv(ptr noundef nonnull align 8 dereferenceable(440) %this)
  %call2 = tail call noundef double @_ZNK8QuantLib21AnalyticBarrierEngine12riskFreeRateEv(ptr noundef nonnull align 8 dereferenceable(440) %this)
  %call3 = tail call noundef double @_ZNK8QuantLib21AnalyticBarrierEngine13dividendYieldEv(ptr noundef nonnull align 8 dereferenceable(440) %this)
  %sub = fsub double %call2, %call3
  %mul = fmul double %call, %call
  %div = fdiv double %sub, %mul
  %sub4 = fadd double %div, -5.000000e-01
  ret double %sub4
}